target datalayout = "e-m:e-p270:32:32-p271:32:32-p272:64:64-i64:64-i128:128-f80:128-n8:16:32:64-S128"
target triple = "x86_64-pc-linux-gnu"

%"class.std::__1::locale::facet" = type { %"class.std::__1::__shared_count" }
%"class.std::__1::__shared_count" = type { ptr, i64 }
%"class.std::__1::ctype_byname" = type { %"class.std::__1::ctype.base", ptr }
%"class.std::__1::ctype.base" = type <{ %"class.std::__1::locale::facet", ptr, i8 }>

; Function Attrs: inlinehint mustprogress nounwind uwtable
define linkonce_odr hidden noundef i32 @_ZNSt3__18__locale9__toupperB8ne210000EiP15__locale_struct(i32 noundef %0, ptr noundef %1) #4 comdat {
  %3 = alloca i32, align 4
  %4 = alloca ptr, align 8
  store i32 %0, ptr %3, align 4, !tbaa !41
  store ptr %1, ptr %4, align 8, !tbaa !102
  %5 = load i32, ptr %3, align 4, !tbaa !41
  %6 = load ptr, ptr %4, align 8, !tbaa !102
  %7 = call i32 @toupper_l(i32 noundef %5, ptr noundef %6) #13
  ret i32 %7
}

; Function Attrs: mustprogress uwtable
define dso_local noundef ptr @_ZNKSt3__112ctype_bynameIcE10do_toupperEPcPKc(ptr noundef nonnull align 8 dereferenceable(40) %0, ptr noundef %1, ptr noundef %2) unnamed_addr #2 align 2 {
  %4 = alloca ptr, align 8
  %5 = alloca ptr, align 8
  %6 = alloca ptr, align 8
  store ptr %0, ptr %4, align 8, !tbaa !396
  store ptr %1, ptr %5, align 8, !tbaa !9
  store ptr %2, ptr %6, align 8, !tbaa !9
  %7 = load ptr, ptr %4, align 8
  br label %8

8:                                                ; preds = %21, %3
  %9 = load ptr, ptr %5, align 8, !tbaa !9
  %10 = load ptr, ptr %6, align 8, !tbaa !9
  %11 = icmp ne ptr %9, %10
  br i1 %11, label %12, label %24

12:                                               ; preds = %8
  %13 = load ptr, ptr %5, align 8, !tbaa !9
  %14 = load i8, ptr %13, align 1, !tbaa !11
  %15 = zext i8 %14 to i32
  %16 = getelementptr inbounds nuw %"class.std::__1::ctype_byname", ptr %7, i32 0, i32 1
  %17 = load ptr, ptr %16, align 8, !tbaa !466
  %18 = call noundef i32 @_ZNSt3__18__locale9__toupperB8ne210000EiP15__locale_struct(i32 noundef %15, ptr noundef %17)
  %19 = trunc i32 %18 to i8
  %20 = load ptr, ptr %5, align 8, !tbaa !9
  store i8 %19, ptr %20, align 1, !tbaa !11
  br label %21

21:                                               ; preds = %12
  %22 = load ptr, ptr %5, align 8, !tbaa !9
  %23 = getelementptr inbounds nuw i8, ptr %22, i32 1
  store ptr %23, ptr %5, align 8, !tbaa !9
  br label %8, !llvm.loop !468

24:                                               ; preds = %8
  %25 = load ptr, ptr %5, align 8, !tbaa !9
  ret ptr %25
}