; Function Attrs: mustprogress nounwind uwtable
define dso_local noundef ptr @_ZNKSt3__112ctype_bynameIcE10do_toupperEPcPKc(ptr noundef nonnull readonly align 8 captures(none) dereferenceable(40) %0, ptr noundef captures(address, ret: address, provenance) %1, ptr noundef readnone captures(address) %2) unnamed_addr #0 align 2 {
  %.not7 = icmp eq ptr %1, %2
  br i1 %.not7, label %._crit_edge, label %.lr.ph

.lr.ph:                                           ; preds = %3
  %4 = getelementptr inbounds nuw i8, ptr %0, i64 32
  br label %5

5:                                                ; preds = %.lr.ph, %5
  %.08 = phi ptr [ %1, %.lr.ph ], [ %11, %5 ]
  %6 = load i8, ptr %.08, align 1, !tbaa !4
  %7 = zext i8 %6 to i32
  %8 = load ptr, ptr %4, align 8, !tbaa !394
  %9 = tail call noundef i32 @toupper_l(i32 noundef %7, ptr noundef %8) #45
  %10 = trunc i32 %9 to i8
  store i8 %10, ptr %.08, align 1, !tbaa !4
  %11 = getelementptr inbounds nuw i8, ptr %.08, i64 1
  %.not = icmp eq ptr %11, %2
  br i1 %.not, label %._crit_edge, label %5, !llvm.loop !396

._crit_edge:                                      ; preds = %5, %3
  %.0.lcssa = phi ptr [ %1, %3 ], [ %11, %5 ]
  ret ptr %.0.lcssa
}